; Function Attrs: mustprogress uwtable
define dso_local void @_ZNK11flatbuffers22FloatConstantGenerator16GenFloatConstantB5cxx11ERKNS_8FieldDefE(ptr noalias sret(%"class.std::__cxx11::basic_string") align 8 %agg.result, ptr noundef nonnull align 8 dereferenceable(8) %this, ptr noundef nonnull align 8 dereferenceable(312) %field) local_unnamed_addr #0 align 2 personality ptr @__gxx_personality_v0 {
entry:
  %ref.tmp = alloca %"class.std::allocator", align 1
  %value = getelementptr inbounds i8, ptr %field, i64 200
  %0 = load i32, ptr %value, align 8
  switch i32 %0, label %sw.default [
    i32 11, label %sw.bb
    i32 12, label %sw.bb2
  ]

sw.bb:                                            ; preds = %entry
  tail call void @_ZNK11flatbuffers22FloatConstantGenerator20GenFloatConstantImplIfEENSt7__cxx1112basic_stringIcSt11char_traitsIcESaIcEEERKNS_8FieldDefE(ptr sret(%"class.std::__cxx11::basic_string") align 8 %agg.result, ptr noundef nonnull align 8 dereferenceable(8) %this, ptr noundef nonnull align 8 dereferenceable(312) %field)
  br label %return

sw.bb2:                                           ; preds = %entry
  tail call void @_ZNK11flatbuffers22FloatConstantGenerator20GenFloatConstantImplIdEENSt7__cxx1112basic_stringIcSt11char_traitsIcESaIcEEERKNS_8FieldDefE(ptr sret(%"class.std::__cxx11::basic_string") align 8 %agg.result, ptr noundef nonnull align 8 dereferenceable(8) %this, ptr noundef nonnull align 8 dereferenceable(312) %field)
  br label %return

sw.default:                                       ; preds = %entry
  call void @_ZNSaIcEC1Ev(ptr noundef nonnull align 1 dereferenceable(1) %ref.tmp) #12
  %call.i3 = invoke noundef ptr @_ZNSt7__cxx1112basic_stringIcSt11char_traitsIcESaIcEE13_M_local_dataEv(ptr noundef nonnull align 8 dereferenceable(32) %agg.result)
          to label %call.i.noexc unwind label %lpad

call.i.noexc:                                     ; preds = %sw.default
  invoke void @_ZNSt7__cxx1112basic_stringIcSt11char_traitsIcESaIcEE12_Alloc_hiderC1EPcRKS3_(ptr noundef nonnull align 8 dereferenceable(8) %agg.result, ptr noundef %call.i3, ptr noundef nonnull align 1 dereferenceable(1) %ref.tmp)
          to label %.noexc unwind label %lpad

.noexc:                                           ; preds = %call.i.noexc
  invoke void @_ZNSt7__cxx1112basic_stringIcSt11char_traitsIcESaIcEE12_M_constructIPKcEEvT_S8_St20forward_iterator_tag(ptr noundef nonnull align 8 dereferenceable(32) %agg.result, ptr noundef nonnull @.str.11, ptr noundef nonnull getelementptr inbounds ([18 x i8], ptr @.str.11, i64 0, i64 17))
          to label %invoke.cont unwind label %lpad.i

lpad.i:                                           ; preds = %.noexc
  %1 = landingpad { ptr, i32 }
          cleanup
  call void @_ZNSaIcED2Ev(ptr noundef nonnull align 1 dereferenceable(1) %agg.result) #12
  br label %lpad.body

invoke.cont:                                      ; preds = %.noexc
  call void @_ZNSaIcED1Ev(ptr noundef nonnull align 1 dereferenceable(1) %ref.tmp) #12
  br label %return

lpad:                                             ; preds = %call.i.noexc, %sw.default
  %2 = landingpad { ptr, i32 }
          cleanup
  br label %lpad.body

lpad.body:                                        ; preds = %lpad.i, %lpad
  %eh.lpad-body = phi { ptr, i32 } [ %2, %lpad ], [ %1, %lpad.i ]
  call void @_ZNSaIcED1Ev(ptr noundef nonnull align 1 dereferenceable(1) %ref.tmp) #12
  resume { ptr, i32 } %eh.lpad-body

return:                                           ; preds = %invoke.cont, %sw.bb2, %sw.bb
  ret void
}